target datalayout = "e-m:e-p270:32:32-p271:32:32-p272:64:64-i64:64-i128:128-f80:128-n8:16:32:64-S128"
target triple = "x86_64-pc-linux-gnu"

%struct._CLzmaProps = type { i32, i32, i32, i32 }

; Function Attrs: nounwind uwtable
define i32 @LzmaProps_Decode(ptr noundef %0, ptr noundef %1, i32 noundef %2) #0 {
  %4 = alloca i32, align 4
  %5 = alloca ptr, align 8
  %6 = alloca ptr, align 8
  %7 = alloca i32, align 4
  %8 = alloca i32, align 4
  %9 = alloca i8, align 1
  store ptr %0, ptr %5, align 8
  store ptr %1, ptr %6, align 8
  store i32 %2, ptr %7, align 4
  %10 = load i32, ptr %7, align 4
  %11 = icmp ult i32 %10, 5
  br i1 %11, label %12, label %13

12:                                               ; preds = %3
  store i32 4, ptr %4, align 4
  br label %71

13:                                               ; preds = %3
  %14 = load ptr, ptr %6, align 8
  %15 = getelementptr inbounds i8, ptr %14, i64 1
  %16 = load i8, ptr %15, align 1
  %17 = zext i8 %16 to i32
  %18 = load ptr, ptr %6, align 8
  %19 = getelementptr inbounds i8, ptr %18, i64 2
  %20 = load i8, ptr %19, align 1
  %21 = zext i8 %20 to i32
  %22 = shl i32 %21, 8
  %23 = or i32 %17, %22
  %24 = load ptr, ptr %6, align 8
  %25 = getelementptr inbounds i8, ptr %24, i64 3
  %26 = load i8, ptr %25, align 1
  %27 = zext i8 %26 to i32
  %28 = shl i32 %27, 16
  %29 = or i32 %23, %28
  %30 = load ptr, ptr %6, align 8
  %31 = getelementptr inbounds i8, ptr %30, i64 4
  %32 = load i8, ptr %31, align 1
  %33 = zext i8 %32 to i32
  %34 = shl i32 %33, 24
  %35 = or i32 %29, %34
  store i32 %35, ptr %8, align 4
  br label %36

36:                                               ; preds = %13
  %37 = load i32, ptr %8, align 4
  %38 = icmp ult i32 %37, 4096
  br i1 %38, label %39, label %40

39:                                               ; preds = %36
  store i32 4096, ptr %8, align 4
  br label %40

40:                                               ; preds = %39, %36
  %41 = load i32, ptr %8, align 4
  %42 = load ptr, ptr %5, align 8
  %43 = getelementptr inbounds %struct._CLzmaProps, ptr %42, i32 0, i32 3
  store i32 %41, ptr %43, align 4
  %44 = load ptr, ptr %6, align 8
  %45 = getelementptr inbounds i8, ptr %44, i64 0
  %46 = load i8, ptr %45, align 1
  store i8 %46, ptr %9, align 1
  %47 = load i8, ptr %9, align 1
  %48 = zext i8 %47 to i32
  %49 = icmp sge i32 %48, 225
  br i1 %49, label %50, label %51

50:                                               ; preds = %40
  store i32 4, ptr %4, align 4
  br label %71

51:                                               ; preds = %40
  %52 = load i8, ptr %9, align 1
  %53 = zext i8 %52 to i32
  %54 = srem i32 %53, 9
  %55 = load ptr, ptr %5, align 8
  %56 = getelementptr inbounds %struct._CLzmaProps, ptr %55, i32 0, i32 0
  store i32 %54, ptr %56, align 4
  %57 = load i8, ptr %9, align 1
  %58 = zext i8 %57 to i32
  %59 = sdiv i32 %58, 9
  %60 = trunc i32 %59 to i8
  store i8 %60, ptr %9, align 1
  %61 = load i8, ptr %9, align 1
  %62 = zext i8 %61 to i32
  %63 = sdiv i32 %62, 5
  %64 = load ptr, ptr %5, align 8
  %65 = getelementptr inbounds %struct._CLzmaProps, ptr %64, i32 0, i32 2
  store i32 %63, ptr %65, align 4
  %66 = load i8, ptr %9, align 1
  %67 = zext i8 %66 to i32
  %68 = srem i32 %67, 5
  %69 = load ptr, ptr %5, align 8
  %70 = getelementptr inbounds %struct._CLzmaProps, ptr %69, i32 0, i32 1
  store i32 %68, ptr %70, align 4
  store i32 0, ptr %4, align 4
  br label %71

71:                                               ; preds = %51, %50, %12
  %72 = load i32, ptr %4, align 4
  ret i32 %72
}