; Function Attrs: mustprogress nofree norecurse nosync nounwind willreturn memory(argmem: readwrite) uwtable
define noundef i32 @LzmaProps_Decode(ptr nocapture noundef writeonly %0, ptr nocapture noundef readonly %1, i32 noundef %2) local_unnamed_addr #5 {
  %4 = icmp ult i32 %2, 5
  br i1 %4, label %19, label %5

5:                                                ; preds = %3
  %6 = getelementptr inbounds i8, ptr %1, i64 1
  %7 = load i32, ptr %6, align 1
  %spec.store.select = tail call i32 @llvm.umax.i32(i32 %7, i32 4096)
  %8 = getelementptr inbounds i8, ptr %0, i64 12
  store i32 %spec.store.select, ptr %8, align 4
  %9 = load i8, ptr %1, align 1
  %10 = icmp ugt i8 %9, -32
  br i1 %10, label %19, label %11

11:                                               ; preds = %5
  %12 = urem i8 %9, 9
  %13 = zext nneg i8 %12 to i32
  store i32 %13, ptr %0, align 4
  %14 = udiv i8 %9, 9
  %15 = udiv i8 %9, 45
  %.zext = zext nneg i8 %15 to i32
  %16 = getelementptr inbounds i8, ptr %0, i64 8
  store i32 %.zext, ptr %16, align 4
  %17 = urem i8 %14, 5
  %.zext19 = zext nneg i8 %17 to i32
  %18 = getelementptr inbounds i8, ptr %0, i64 4
  store i32 %.zext19, ptr %18, align 4
  br label %19

19:                                               ; preds = %5, %3, %11
  %.0 = phi i32 [ 0, %11 ], [ 4, %3 ], [ 4, %5 ]
  ret i32 %.0
}